target datalayout = "e-m:e-p270:32:32-p271:32:32-p272:64:64-i64:64-i128:128-f80:128-n8:16:32:64-S128"
target triple = "x86_64-pc-linux-gnu"

%struct.visual_pkt_hdr = type { i32, i16, i16, i32, i8, i8, [6 x i8] }
%struct.wtap_rec = type { i32, i32, i32, %struct.nstime_t, i32, %struct.nstime_t, i8, %union.anon, ptr, i8, %struct.Buffer, %struct.Buffer }
%struct.nstime_t = type { i64, i32 }
%union.anon = type { %struct.wtap_packet_header }
%struct.wtap_packet_header = type { i32, i32, i32, i32, %union.wtap_pseudo_header }
%union.wtap_pseudo_header = type { %struct.erf_mc_phdr }
%struct.erf_mc_phdr = type { %struct.erf_phdr, [16 x %struct.erf_ehdr], %union.anon.1 }
%struct.erf_phdr = type { i64, i8, i8, i16, i16, i16 }
%struct.erf_ehdr = type { i64 }
%union.anon.1 = type { i32 }
%struct.Buffer = type { ptr, i64, i64, i64 }
%struct.p2p_phdr = type { i8 }
%struct.dte_dce_phdr = type { i8 }
%struct.wtap_dumper = type { ptr, i32, i32, i32, i32, i8, i64, ptr, ptr, ptr, ptr, ptr, ptr, ptr, ptr, ptr, ptr, ptr, ptr, ptr, i32, i32, i32 }
%struct.visual_write_info = type { i32, i32, i32, ptr, i32 }

; Function Attrs: null_pointer_is_valid sspstrong uwtable
define internal zeroext i1 @visual_dump(ptr noundef %0, ptr noundef %1, ptr noundef %2, ptr noundef %3, ptr noundef %4) #0 {
  %6 = alloca i1, align 1
  %7 = alloca ptr, align 8
  %8 = alloca ptr, align 8
  %9 = alloca ptr, align 8
  %10 = alloca ptr, align 8
  %11 = alloca ptr, align 8
  %12 = alloca ptr, align 8
  %13 = alloca ptr, align 8
  %14 = alloca %struct.visual_pkt_hdr, align 4
  %15 = alloca i64, align 8
  %16 = alloca i32, align 4
  %17 = alloca i32, align 4
  %18 = alloca i32, align 4
  store ptr %0, ptr %7, align 8
  store ptr %1, ptr %8, align 8
  store ptr %2, ptr %9, align 8
  store ptr %3, ptr %10, align 8
  store ptr %4, ptr %11, align 8
  call void @llvm.lifetime.start.p0(i64 8, ptr %12) #10
  %19 = load ptr, ptr %8, align 8
  %20 = getelementptr inbounds nuw %struct.wtap_rec, ptr %19, i32 0, i32 7
  %21 = getelementptr inbounds nuw %struct.wtap_packet_header, ptr %20, i32 0, i32 4
  store ptr %21, ptr %12, align 8
  call void @llvm.lifetime.start.p0(i64 8, ptr %13) #10
  %22 = load ptr, ptr %7, align 8
  %23 = getelementptr inbounds nuw %struct.wtap_dumper, ptr %22, i32 0, i32 7
  %24 = load ptr, ptr %23, align 8
  store ptr %24, ptr %13, align 8
  call void @llvm.lifetime.start.p0(i64 20, ptr %14) #10
  call void @llvm.memset.p0.i64(ptr align 4 %14, i8 0, i64 20, i1 false)
  call void @llvm.lifetime.start.p0(i64 8, ptr %15) #10
  store i64 20, ptr %15, align 8
  call void @llvm.lifetime.start.p0(i64 4, ptr %16) #10
  call void @llvm.lifetime.start.p0(i64 4, ptr %17) #10
  %25 = load ptr, ptr %8, align 8
  %26 = getelementptr inbounds nuw %struct.wtap_rec, ptr %25, i32 0, i32 0
  %27 = load i32, ptr %26, align 8
  %28 = icmp ne i32 %27, 0
  br i1 %28, label %29, label %31

29:                                               ; preds = %5
  %30 = load ptr, ptr %10, align 8
  store i32 -24, ptr %30, align 4
  store i1 false, ptr %6, align 1
  store i32 1, ptr %18, align 4
  br label %227

31:                                               ; preds = %5
  %32 = load ptr, ptr %7, align 8
  %33 = getelementptr inbounds nuw %struct.wtap_dumper, ptr %32, i32 0, i32 3
  %34 = load i32, ptr %33, align 8
  %35 = load ptr, ptr %8, align 8
  %36 = getelementptr inbounds nuw %struct.wtap_rec, ptr %35, i32 0, i32 7
  %37 = getelementptr inbounds nuw %struct.wtap_packet_header, ptr %36, i32 0, i32 2
  %38 = load i32, ptr %37, align 8
  %39 = icmp ne i32 %34, %38
  br i1 %39, label %40, label %42

40:                                               ; preds = %31
  %41 = load ptr, ptr %10, align 8
  store i32 -9, ptr %41, align 4
  store i1 false, ptr %6, align 1
  store i32 1, ptr %18, align 4
  br label %227

42:                                               ; preds = %31
  %43 = load ptr, ptr %8, align 8
  %44 = getelementptr inbounds nuw %struct.wtap_rec, ptr %43, i32 0, i32 7
  %45 = getelementptr inbounds nuw %struct.wtap_packet_header, ptr %44, i32 0, i32 0
  %46 = load i32, ptr %45, align 8
  %47 = icmp ugt i32 %46, 262144
  br i1 %47, label %48, label %50

48:                                               ; preds = %42
  %49 = load ptr, ptr %10, align 8
  store i32 -22, ptr %49, align 4
  store i1 false, ptr %6, align 1
  store i32 1, ptr %18, align 4
  br label %227

50:                                               ; preds = %42
  %51 = load ptr, ptr %13, align 8
  %52 = icmp eq ptr %51, null
  br i1 %52, label %53, label %54

53:                                               ; preds = %50
  store i1 false, ptr %6, align 1
  store i32 1, ptr %18, align 4
  br label %227

54:                                               ; preds = %50
  %55 = load ptr, ptr %13, align 8
  %56 = getelementptr inbounds nuw %struct.visual_write_info, ptr %55, i32 0, i32 1
  %57 = load i32, ptr %56, align 4
  %58 = icmp eq i32 %57, 0
  br i1 %58, label %59, label %86

59:                                               ; preds = %54
  %60 = load ptr, ptr %8, align 8
  %61 = getelementptr inbounds nuw %struct.wtap_rec, ptr %60, i32 0, i32 3
  %62 = getelementptr inbounds nuw %struct.nstime_t, ptr %61, i32 0, i32 0
  %63 = load i64, ptr %62, align 8
  %64 = icmp slt i64 %63, 0
  br i1 %64, label %71, label %65

65:                                               ; preds = %59
  %66 = load ptr, ptr %8, align 8
  %67 = getelementptr inbounds nuw %struct.wtap_rec, ptr %66, i32 0, i32 3
  %68 = getelementptr inbounds nuw %struct.nstime_t, ptr %67, i32 0, i32 0
  %69 = load i64, ptr %68, align 8
  %70 = icmp sgt i64 %69, 4294967295
  br i1 %70, label %71, label %73

71:                                               ; preds = %65, %59
  %72 = load ptr, ptr %10, align 8
  store i32 -27, ptr %72, align 4
  store i1 false, ptr %6, align 1
  store i32 1, ptr %18, align 4
  br label %227

73:                                               ; preds = %65
  %74 = load ptr, ptr %8, align 8
  %75 = getelementptr inbounds nuw %struct.wtap_rec, ptr %74, i32 0, i32 3
  %76 = getelementptr inbounds nuw %struct.nstime_t, ptr %75, i32 0, i32 0
  %77 = load i64, ptr %76, align 8
  %78 = trunc i64 %77 to i32
  %79 = load ptr, ptr %13, align 8
  %80 = getelementptr inbounds nuw %struct.visual_write_info, ptr %79, i32 0, i32 0
  store i32 %78, ptr %80, align 8
  %81 = call noalias ptr @g_malloc(i64 noundef 4096) #12
  %82 = load ptr, ptr %13, align 8
  %83 = getelementptr inbounds nuw %struct.visual_write_info, ptr %82, i32 0, i32 3
  store ptr %81, ptr %83, align 8
  %84 = load ptr, ptr %13, align 8
  %85 = getelementptr inbounds nuw %struct.visual_write_info, ptr %84, i32 0, i32 2
  store i32 1024, ptr %85, align 8
  br label %86

86:                                               ; preds = %73, %54
  %87 = load ptr, ptr %8, align 8
  %88 = getelementptr inbounds nuw %struct.wtap_rec, ptr %87, i32 0, i32 3
  %89 = getelementptr inbounds nuw %struct.nstime_t, ptr %88, i32 0, i32 1
  %90 = load i32, ptr %89, align 8
  %91 = sdiv i32 %90, 1000000
  store i32 %91, ptr %16, align 4
  %92 = load ptr, ptr %8, align 8
  %93 = getelementptr inbounds nuw %struct.wtap_rec, ptr %92, i32 0, i32 3
  %94 = getelementptr inbounds nuw %struct.nstime_t, ptr %93, i32 0, i32 0
  %95 = load i64, ptr %94, align 8
  %96 = load ptr, ptr %13, align 8
  %97 = getelementptr inbounds nuw %struct.visual_write_info, ptr %96, i32 0, i32 0
  %98 = load i32, ptr %97, align 8
  %99 = zext i32 %98 to i64
  %100 = sub i64 %95, %99
  %101 = mul i64 %100, 1000
  %102 = trunc i64 %101 to i32
  %103 = load i32, ptr %16, align 4
  %104 = add i32 %103, %102
  store i32 %104, ptr %16, align 4
  %105 = load i32, ptr %16, align 4
  %106 = getelementptr inbounds nuw %struct.visual_pkt_hdr, ptr %14, i32 0, i32 0
  store i32 %105, ptr %106, align 4
  %107 = load ptr, ptr %8, align 8
  %108 = getelementptr inbounds nuw %struct.wtap_rec, ptr %107, i32 0, i32 7
  %109 = getelementptr inbounds nuw %struct.wtap_packet_header, ptr %108, i32 0, i32 1
  %110 = load i32, ptr %109, align 4
  %111 = trunc i32 %110 to i16
  %112 = getelementptr inbounds nuw %struct.visual_pkt_hdr, ptr %14, i32 0, i32 1
  store i16 %111, ptr %112, align 4
  %113 = load ptr, ptr %8, align 8
  %114 = getelementptr inbounds nuw %struct.wtap_rec, ptr %113, i32 0, i32 7
  %115 = getelementptr inbounds nuw %struct.wtap_packet_header, ptr %114, i32 0, i32 0
  %116 = load i32, ptr %115, align 8
  %117 = trunc i32 %116 to i16
  %118 = getelementptr inbounds nuw %struct.visual_pkt_hdr, ptr %14, i32 0, i32 2
  store i16 %117, ptr %118, align 2
  %119 = load ptr, ptr %7, align 8
  %120 = getelementptr inbounds nuw %struct.wtap_dumper, ptr %119, i32 0, i32 3
  %121 = load i32, ptr %120, align 8
  switch i32 %121, label %133 [
    i32 1, label %122
    i32 2, label %124
    i32 4, label %126
    i32 19, label %126
    i32 40, label %128
    i32 27, label %130
    i32 12, label %132
  ]

122:                                              ; preds = %86
  %123 = getelementptr inbounds nuw %struct.visual_pkt_hdr, ptr %14, i32 0, i32 4
  store i8 2, ptr %123, align 4
  br label %135

124:                                              ; preds = %86
  %125 = getelementptr inbounds nuw %struct.visual_pkt_hdr, ptr %14, i32 0, i32 4
  store i8 3, ptr %125, align 4
  br label %135

126:                                              ; preds = %86, %86
  %127 = getelementptr inbounds nuw %struct.visual_pkt_hdr, ptr %14, i32 0, i32 4
  store i8 14, ptr %127, align 4
  br label %135

128:                                              ; preds = %86
  %129 = getelementptr inbounds nuw %struct.visual_pkt_hdr, ptr %14, i32 0, i32 4
  store i8 13, ptr %129, align 4
  br label %135

130:                                              ; preds = %86
  %131 = getelementptr inbounds nuw %struct.visual_pkt_hdr, ptr %14, i32 0, i32 4
  store i8 12, ptr %131, align 4
  br label %135

132:                                              ; preds = %86
  br label %133

133:                                              ; preds = %86, %132
  %134 = getelementptr inbounds nuw %struct.visual_pkt_hdr, ptr %14, i32 0, i32 4
  store i8 1, ptr %134, align 4
  br label %135

135:                                              ; preds = %133, %130, %128, %126, %124, %122
  store i32 0, ptr %17, align 4
  %136 = load ptr, ptr %7, align 8
  %137 = getelementptr inbounds nuw %struct.wtap_dumper, ptr %136, i32 0, i32 3
  %138 = load i32, ptr %137, align 8
  switch i32 %138, label %157 [
    i32 40, label %139
    i32 27, label %147
    i32 12, label %147
  ]

139:                                              ; preds = %135
  %140 = load ptr, ptr %12, align 8
  %141 = getelementptr inbounds nuw %struct.p2p_phdr, ptr %140, i32 0, i32 0
  %142 = load i8, ptr %141, align 8, !range !6, !noundef !7
  %143 = trunc i8 %142 to i1
  %144 = select i1 %143, i32 64, i32 0
  %145 = load i32, ptr %17, align 4
  %146 = or i32 %145, %144
  store i32 %146, ptr %17, align 4
  br label %157

147:                                              ; preds = %135, %135
  %148 = load ptr, ptr %12, align 8
  %149 = getelementptr inbounds nuw %struct.dte_dce_phdr, ptr %148, i32 0, i32 0
  %150 = load i8, ptr %149, align 8
  %151 = zext i8 %150 to i32
  %152 = and i32 %151, 128
  %153 = icmp ne i32 %152, 0
  %154 = select i1 %153, i32 0, i32 64
  %155 = load i32, ptr %17, align 4
  %156 = or i32 %155, %154
  store i32 %156, ptr %17, align 4
  br label %157

157:                                              ; preds = %135, %147, %139
  %158 = load i32, ptr %17, align 4
  %159 = getelementptr inbounds nuw %struct.visual_pkt_hdr, ptr %14, i32 0, i32 3
  store i32 %158, ptr %159, align 4
  %160 = load ptr, ptr %7, align 8
  %161 = load i64, ptr %15, align 8
  %162 = load ptr, ptr %10, align 8
  %163 = call zeroext i1 @wtap_dump_file_write(ptr noundef %160, ptr noundef %14, i64 noundef %161, ptr noundef %162)
  br i1 %163, label %165, label %164

164:                                              ; preds = %157
  store i1 false, ptr %6, align 1
  store i32 1, ptr %18, align 4
  br label %227

165:                                              ; preds = %157
  %166 = load ptr, ptr %7, align 8
  %167 = load ptr, ptr %9, align 8
  %168 = load ptr, ptr %8, align 8
  %169 = getelementptr inbounds nuw %struct.wtap_rec, ptr %168, i32 0, i32 7
  %170 = getelementptr inbounds nuw %struct.wtap_packet_header, ptr %169, i32 0, i32 0
  %171 = load i32, ptr %170, align 8
  %172 = zext i32 %171 to i64
  %173 = load ptr, ptr %10, align 8
  %174 = call zeroext i1 @wtap_dump_file_write(ptr noundef %166, ptr noundef %167, i64 noundef %172, ptr noundef %173)
  br i1 %174, label %176, label %175

175:                                              ; preds = %165
  store i1 false, ptr %6, align 1
  store i32 1, ptr %18, align 4
  br label %227

176:                                              ; preds = %165
  %177 = load ptr, ptr %13, align 8
  %178 = getelementptr inbounds nuw %struct.visual_write_info, ptr %177, i32 0, i32 1
  %179 = load i32, ptr %178, align 4
  %180 = load ptr, ptr %13, align 8
  %181 = getelementptr inbounds nuw %struct.visual_write_info, ptr %180, i32 0, i32 2
  %182 = load i32, ptr %181, align 8
  %183 = icmp sge i32 %179, %182
  br i1 %183, label %184, label %200

184:                                              ; preds = %176
  %185 = load ptr, ptr %13, align 8
  %186 = getelementptr inbounds nuw %struct.visual_write_info, ptr %185, i32 0, i32 2
  %187 = load i32, ptr %186, align 8
  %188 = mul i32 %187, 2
  store i32 %188, ptr %186, align 8
  %189 = load ptr, ptr %13, align 8
  %190 = getelementptr inbounds nuw %struct.visual_write_info, ptr %189, i32 0, i32 3
  %191 = load ptr, ptr %190, align 8
  %192 = load ptr, ptr %13, align 8
  %193 = getelementptr inbounds nuw %struct.visual_write_info, ptr %192, i32 0, i32 2
  %194 = load i32, ptr %193, align 8
  %195 = sext i32 %194 to i64
  %196 = mul i64 %195, 4
  %197 = call ptr @g_realloc(ptr noundef %191, i64 noundef %196)
  %198 = load ptr, ptr %13, align 8
  %199 = getelementptr inbounds nuw %struct.visual_write_info, ptr %198, i32 0, i32 3
  store ptr %197, ptr %199, align 8
  br label %200

200:                                              ; preds = %184, %176
  %201 = load ptr, ptr %13, align 8
  %202 = getelementptr inbounds nuw %struct.visual_write_info, ptr %201, i32 0, i32 4
  %203 = load i32, ptr %202, align 8
  %204 = load ptr, ptr %13, align 8
  %205 = getelementptr inbounds nuw %struct.visual_write_info, ptr %204, i32 0, i32 3
  %206 = load ptr, ptr %205, align 8
  %207 = load ptr, ptr %13, align 8
  %208 = getelementptr inbounds nuw %struct.visual_write_info, ptr %207, i32 0, i32 1
  %209 = load i32, ptr %208, align 4
  %210 = sext i32 %209 to i64
  %211 = getelementptr i32, ptr %206, i64 %210
  store i32 %203, ptr %211, align 4
  %212 = load ptr, ptr %13, align 8
  %213 = getelementptr inbounds nuw %struct.visual_write_info, ptr %212, i32 0, i32 1
  %214 = load i32, ptr %213, align 4
  %215 = add i32 %214, 1
  store i32 %215, ptr %213, align 4
  %216 = load i64, ptr %15, align 8
  %217 = trunc i64 %216 to i32
  %218 = load ptr, ptr %8, align 8
  %219 = getelementptr inbounds nuw %struct.wtap_rec, ptr %218, i32 0, i32 7
  %220 = getelementptr inbounds nuw %struct.wtap_packet_header, ptr %219, i32 0, i32 0
  %221 = load i32, ptr %220, align 8
  %222 = add i32 %217, %221
  %223 = load ptr, ptr %13, align 8
  %224 = getelementptr inbounds nuw %struct.visual_write_info, ptr %223, i32 0, i32 4
  %225 = load i32, ptr %224, align 8
  %226 = add i32 %225, %222
  store i32 %226, ptr %224, align 8
  store i1 true, ptr %6, align 1
  store i32 1, ptr %18, align 4
  br label %227

227:                                              ; preds = %200, %175, %164, %71, %53, %48, %40, %29
  call void @llvm.lifetime.end.p0(i64 4, ptr %17) #10
  call void @llvm.lifetime.end.p0(i64 4, ptr %16) #10
  call void @llvm.lifetime.end.p0(i64 8, ptr %15) #10
  call void @llvm.lifetime.end.p0(i64 20, ptr %14) #10
  call void @llvm.lifetime.end.p0(i64 8, ptr %13) #10
  call void @llvm.lifetime.end.p0(i64 8, ptr %12) #10
  %228 = load i1, ptr %6, align 1
  ret i1 %228
}