; Function Attrs: null_pointer_is_valid sspstrong uwtable
define internal noundef zeroext i1 @visual_dump(ptr noundef %0, ptr noundef readonly captures(none) %1, ptr noundef %2, ptr noundef %3, ptr readnone captures(none) %4) #0 {
  %6 = alloca %struct.visual_pkt_hdr, align 4
  %7 = getelementptr inbounds nuw i8, ptr %1, i64 64
  %8 = getelementptr inbounds nuw i8, ptr %1, i64 80
  %9 = getelementptr inbounds nuw i8, ptr %0, i64 40
  %10 = load ptr, ptr %9, align 8
  call void @llvm.lifetime.start.p0(i64 20, ptr nonnull %6) #7
  %11 = getelementptr inbounds nuw i8, ptr %6, i64 8
  call void @llvm.memset.p0.i64(ptr noundef nonnull align 4 dereferenceable(20) %11, i8 0, i64 12, i1 false)
  %12 = load i32, ptr %1, align 8
  %.not = icmp eq i32 %12, 0
  br i1 %.not, label %14, label %13

13:                                               ; preds = %5
  store i32 -24, ptr %3, align 4
  br label %103

14:                                               ; preds = %5
  %15 = getelementptr inbounds nuw i8, ptr %0, i64 16
  %16 = load i32, ptr %15, align 8
  %17 = getelementptr inbounds nuw i8, ptr %1, i64 72
  %18 = load i32, ptr %17, align 8
  %.not56 = icmp eq i32 %16, %18
  br i1 %.not56, label %20, label %19

19:                                               ; preds = %14
  store i32 -9, ptr %3, align 4
  br label %103

20:                                               ; preds = %14
  %21 = load i32, ptr %7, align 8
  %22 = icmp ugt i32 %21, 262144
  br i1 %22, label %23, label %24

23:                                               ; preds = %20
  store i32 -22, ptr %3, align 4
  br label %103

24:                                               ; preds = %20
  %25 = icmp eq ptr %10, null
  br i1 %25, label %103, label %26

26:                                               ; preds = %24
  %27 = getelementptr inbounds nuw i8, ptr %10, i64 4
  %28 = load i32, ptr %27, align 4
  %29 = icmp eq i32 %28, 0
  br i1 %29, label %30, label %39

30:                                               ; preds = %26
  %31 = getelementptr inbounds nuw i8, ptr %1, i64 16
  %32 = load i64, ptr %31, align 8
  %or.cond = icmp ugt i64 %32, 4294967295
  br i1 %or.cond, label %33, label %34

33:                                               ; preds = %30
  store i32 -27, ptr %3, align 4
  br label %103

34:                                               ; preds = %30
  %35 = trunc nuw i64 %32 to i32
  store i32 %35, ptr %10, align 8
  %36 = tail call noalias dereferenceable_or_null(4096) ptr @g_malloc(i64 noundef 4096) #8
  %37 = getelementptr inbounds nuw i8, ptr %10, i64 16
  store ptr %36, ptr %37, align 8
  %38 = getelementptr inbounds nuw i8, ptr %10, i64 8
  store i32 1024, ptr %38, align 8
  %.pre = load i32, ptr %7, align 8
  %.pre61 = load i32, ptr %15, align 8
  br label %39

39:                                               ; preds = %34, %26
  %40 = phi i32 [ %.pre61, %34 ], [ %16, %26 ]
  %41 = phi i32 [ %.pre, %34 ], [ %21, %26 ]
  %42 = getelementptr inbounds nuw i8, ptr %1, i64 16
  %43 = getelementptr inbounds nuw i8, ptr %1, i64 24
  %44 = load i32, ptr %43, align 8
  %45 = sdiv i32 %44, 1000000
  %46 = load i64, ptr %42, align 8
  %47 = load i32, ptr %10, align 8
  %48 = trunc i64 %46 to i32
  %49 = sub i32 %48, %47
  %50 = mul i32 %49, 1000
  %51 = add i32 %50, %45
  store i32 %51, ptr %6, align 4
  %52 = getelementptr inbounds nuw i8, ptr %1, i64 68
  %53 = load i32, ptr %52, align 4
  %54 = trunc i32 %53 to i16
  %55 = getelementptr inbounds nuw i8, ptr %6, i64 4
  store i16 %54, ptr %55, align 4
  %56 = trunc i32 %41 to i16
  %57 = getelementptr inbounds nuw i8, ptr %6, i64 6
  store i16 %56, ptr %57, align 2
  switch i32 %40, label %64 [
    i32 1, label %58
    i32 2, label %60
    i32 4, label %65
    i32 19, label %65
    i32 40, label %.thread59
    i32 27, label %.thread60
  ]

58:                                               ; preds = %39
  %59 = getelementptr inbounds nuw i8, ptr %6, i64 12
  store i8 2, ptr %59, align 4
  br label %.thread

60:                                               ; preds = %39
  %61 = getelementptr inbounds nuw i8, ptr %6, i64 12
  store i8 3, ptr %61, align 4
  br label %.thread

.thread59:                                        ; preds = %39
  %62 = getelementptr inbounds nuw i8, ptr %6, i64 12
  store i8 13, ptr %62, align 4
  br label %67

.thread60:                                        ; preds = %39
  %63 = getelementptr inbounds nuw i8, ptr %6, i64 12
  store i8 12, ptr %63, align 4
  br label %71

64:                                               ; preds = %39
  br label %65

65:                                               ; preds = %39, %39, %64
  %.sink = phi i8 [ 1, %64 ], [ 14, %39 ], [ 14, %39 ]
  %66 = getelementptr inbounds nuw i8, ptr %6, i64 12
  store i8 %.sink, ptr %66, align 4
  switch i32 %40, label %.thread [
    i32 40, label %67
    i32 27, label %71
    i32 12, label %71
  ]

67:                                               ; preds = %.thread59, %65
  %68 = load i8, ptr %8, align 8, !range !6, !noundef !7
  %69 = trunc nuw i8 %68 to i1
  %70 = select i1 %69, i32 64, i32 0
  br label %.thread

71:                                               ; preds = %.thread60, %65, %65
  %72 = load i8, ptr %8, align 8
  %.not57 = icmp sgt i8 %72, -1
  %73 = select i1 %.not57, i32 64, i32 0
  br label %.thread

.thread:                                          ; preds = %58, %60, %71, %67, %65
  %.0 = phi i32 [ 0, %65 ], [ %73, %71 ], [ %70, %67 ], [ 0, %60 ], [ 0, %58 ]
  %74 = getelementptr inbounds nuw i8, ptr %6, i64 8
  store i32 %.0, ptr %74, align 4
  %75 = call zeroext i1 @wtap_dump_file_write(ptr noundef %0, ptr noundef nonnull %6, i64 noundef 20, ptr noundef %3)
  br i1 %75, label %76, label %103

76:                                               ; preds = %.thread
  %77 = load i32, ptr %7, align 8
  %78 = zext i32 %77 to i64
  %79 = call zeroext i1 @wtap_dump_file_write(ptr noundef %0, ptr noundef %2, i64 noundef %78, ptr noundef %3)
  br i1 %79, label %80, label %103

80:                                               ; preds = %76
  %81 = load i32, ptr %27, align 4
  %82 = getelementptr inbounds nuw i8, ptr %10, i64 8
  %83 = load i32, ptr %82, align 8
  %.not58 = icmp slt i32 %81, %83
  br i1 %.not58, label %._crit_edge, label %84

._crit_edge:                                      ; preds = %80
  %.phi.trans.insert = getelementptr inbounds nuw i8, ptr %10, i64 16
  %.pre62 = load ptr, ptr %.phi.trans.insert, align 8
  br label %91

84:                                               ; preds = %80
  %85 = shl i32 %83, 1
  store i32 %85, ptr %82, align 8
  %86 = getelementptr inbounds nuw i8, ptr %10, i64 16
  %87 = load ptr, ptr %86, align 8
  %88 = sext i32 %85 to i64
  %89 = shl nsw i64 %88, 2
  %90 = call ptr @g_realloc(ptr noundef %87, i64 noundef %89)
  store ptr %90, ptr %86, align 8
  %.pre63 = load i32, ptr %27, align 4
  br label %91

91:                                               ; preds = %._crit_edge, %84
  %92 = phi i32 [ %81, %._crit_edge ], [ %.pre63, %84 ]
  %93 = phi ptr [ %.pre62, %._crit_edge ], [ %90, %84 ]
  %94 = getelementptr inbounds nuw i8, ptr %10, i64 24
  %95 = load i32, ptr %94, align 8
  %96 = sext i32 %92 to i64
  %97 = getelementptr i32, ptr %93, i64 %96
  store i32 %95, ptr %97, align 4
  %98 = load i32, ptr %27, align 4
  %99 = add i32 %98, 1
  store i32 %99, ptr %27, align 4
  %100 = load i32, ptr %7, align 8
  %101 = add i32 %100, 20
  %102 = add i32 %101, %95
  store i32 %102, ptr %94, align 8
  br label %103

103:                                              ; preds = %76, %.thread, %24, %91, %33, %23, %19, %13
  %.052 = phi i1 [ false, %13 ], [ false, %19 ], [ false, %23 ], [ false, %33 ], [ true, %91 ], [ false, %24 ], [ false, %.thread ], [ false, %76 ]
  call void @llvm.lifetime.end.p0(i64 20, ptr nonnull %6) #7
  ret i1 %.052
}